target datalayout = "e-m:e-p270:32:32-p271:32:32-p272:64:64-i64:64-i128:128-f80:128-n8:16:32:64-S128"
target triple = "x86_64-pc-linux-gnu"

%union.pthread_mutex_t = type { %struct.__pthread_mutex_s }
%struct.__pthread_mutex_s = type { i32, i32, i32, i32, i32, i16, i16, %struct.__pthread_internal_list }
%struct.__pthread_internal_list = type { ptr, ptr }
%struct.___itt_global = type { [8 x i8], i64, i64, i64, i64, i64, i64, %union.pthread_mutex_t, ptr, ptr, ptr, ptr, ptr, ptr, ptr, ptr, i32, ptr, i32, ptr, ptr }
%struct.___itt_id = type { i64, i64, i64 }

@__itt_task_end_overlapped_ex_ptr__3_0 = hidden global ptr @__itt_task_end_overlapped_ex_init_3_0, align 8
@__itt_init_ittlib_ptr = internal global ptr @__itt_init_ittlib, align 8

; Function Attrs: nounwind uwtable
define internal void @__itt_task_end_overlapped_ex_init_3_0(ptr noundef %0, ptr noundef %1, i64 noundef %2, ptr noundef byval(%struct.___itt_id) align 8 %3) #0 {
  %5 = alloca ptr, align 8
  %6 = alloca ptr, align 8
  %7 = alloca i64, align 8
  store ptr %0, ptr %5, align 8, !tbaa !27
  store ptr %1, ptr %6, align 8, !tbaa !37
  store i64 %2, ptr %7, align 8, !tbaa !31
  %8 = load volatile i64, ptr getelementptr inbounds nuw (%struct.___itt_global, ptr @__itt__ittapi_global, i32 0, i32 4), align 8, !tbaa !3
  %9 = icmp ne i64 %8, 0
  br i1 %9, label %16, label %10

10:                                               ; preds = %4
  %11 = load ptr, ptr getelementptr inbounds nuw (%struct.___itt_global, ptr @__itt__ittapi_global, i32 0, i32 13), align 8, !tbaa !20
  %12 = icmp eq ptr %11, null
  br i1 %12, label %13, label %16

13:                                               ; preds = %10
  %14 = load ptr, ptr @__itt_init_ittlib_ptr, align 8, !tbaa !21
  %15 = call i32 %14(ptr noundef null, i32 noundef -1)
  br label %16

16:                                               ; preds = %13, %10, %4
  %17 = load ptr, ptr @__itt_task_end_overlapped_ex_ptr__3_0, align 8, !tbaa !21
  %18 = icmp ne ptr %17, null
  br i1 %18, label %19, label %27

19:                                               ; preds = %16
  %20 = load ptr, ptr @__itt_task_end_overlapped_ex_ptr__3_0, align 8, !tbaa !21
  %21 = icmp ne ptr %20, @__itt_task_end_overlapped_ex_init_3_0
  br i1 %21, label %22, label %27

22:                                               ; preds = %19
  %23 = load ptr, ptr @__itt_task_end_overlapped_ex_ptr__3_0, align 8, !tbaa !21
  %24 = load ptr, ptr %5, align 8, !tbaa !27
  %25 = load ptr, ptr %6, align 8, !tbaa !37
  %26 = load i64, ptr %7, align 8, !tbaa !31
  call void %23(ptr noundef %24, ptr noundef %25, i64 noundef %26, ptr noundef byval(%struct.___itt_id) align 8 %3)
  br label %28

27:                                               ; preds = %19, %16
  br label %28

28:                                               ; preds = %27, %22
  ret void
}